; ModuleID = '51/209.c'
source_filename = "51/209.c"
target datalayout = "e-m:e-p270:32:32-p271:32:32-p272:64:64-i64:64-f80:128-n8:16:32:64-S128"
target triple = "x86_64-pc-linux-gnu"

@.str = private unnamed_addr constant [3 x i8] c"%d\00", align 1
@.str.1 = private unnamed_addr constant [3 x i8] c"NO\00", align 1
@.str.2 = private unnamed_addr constant [4 x i8] c"%d\0A\00", align 1

; Function Attrs: noinline nounwind uwtable
define dso_local i32 @main() #0 {
  %1 = alloca i32, align 4
  %2 = alloca i32, align 4
  %3 = alloca [550 x i8], align 16
  %4 = alloca i32, align 4
  %5 = alloca [550 x [10 x i8]], align 16
  %6 = alloca [550 x i32], align 16
  %7 = alloca i32, align 4
  %8 = alloca i32, align 4
  %9 = alloca i32, align 4
  %10 = alloca i32, align 4
  %11 = alloca i32, align 4
  %12 = alloca i32, align 4
  store i32 0, i32* %1, align 4
  %13 = call i32 (i8*, ...) @__isoc99_scanf(i8* getelementptr inbounds ([3 x i8], [3 x i8]* @.str, i64 0, i64 0), i32* %2)
  %14 = call i32 @getchar()
  %15 = getelementptr inbounds [550 x i8], [550 x i8]* %3, i64 0, i64 0
  %16 = call i32 (i8*, ...) bitcast (i32 (...)* @gets to i32 (i8*, ...)*)(i8* %15)
  %17 = getelementptr inbounds [550 x i8], [550 x i8]* %3, i64 0, i64 0
  %18 = call i64 @strlen(i8* %17) #4
  %19 = trunc i64 %18 to i32
  store i32 %19, i32* %4, align 4
  %20 = bitcast [550 x i32]* %6 to i8*
  call void @llvm.memset.p0i8.i64(i8* align 16 %20, i8 0, i64 2200, i1 false)
  store i32 0, i32* %7, align 4
  br label %21

21:                                               ; preds = %55, %0
  %22 = load i32, i32* %7, align 4
  %23 = load i32, i32* %4, align 4
  %24 = load i32, i32* %2, align 4
  %25 = sub nsw i32 %23, %24
  %26 = icmp sle i32 %22, %25
  br i1 %26, label %27, label %58

27:                                               ; preds = %21
  store i32 0, i32* %8, align 4
  br label %28

28:                                               ; preds = %45, %27
  %29 = load i32, i32* %8, align 4
  %30 = load i32, i32* %2, align 4
  %31 = icmp slt i32 %29, %30
  br i1 %31, label %32, label %48

32:                                               ; preds = %28
  %33 = load i32, i32* %7, align 4
  %34 = load i32, i32* %8, align 4
  %35 = add nsw i32 %33, %34
  %36 = sext i32 %35 to i64
  %37 = getelementptr inbounds [550 x i8], [550 x i8]* %3, i64 0, i64 %36
  %38 = load i8, i8* %37, align 1
  %39 = load i32, i32* %7, align 4
  %40 = sext i32 %39 to i64
  %41 = getelementptr inbounds [550 x [10 x i8]], [550 x [10 x i8]]* %5, i64 0, i64 %40
  %42 = load i32, i32* %8, align 4
  %43 = sext i32 %42 to i64
  %44 = getelementptr inbounds [10 x i8], [10 x i8]* %41, i64 0, i64 %43
  store i8 %38, i8* %44, align 1
  br label %45

45:                                               ; preds = %32
  %46 = load i32, i32* %8, align 4
  %47 = add nsw i32 %46, 1
  store i32 %47, i32* %8, align 4
  br label %28

48:                                               ; preds = %28
  %49 = load i32, i32* %7, align 4
  %50 = sext i32 %49 to i64
  %51 = getelementptr inbounds [550 x [10 x i8]], [550 x [10 x i8]]* %5, i64 0, i64 %50
  %52 = load i32, i32* %2, align 4
  %53 = sext i32 %52 to i64
  %54 = getelementptr inbounds [10 x i8], [10 x i8]* %51, i64 0, i64 %53
  store i8 0, i8* %54, align 1
  br label %55

55:                                               ; preds = %48
  %56 = load i32, i32* %7, align 4
  %57 = add nsw i32 %56, 1
  store i32 %57, i32* %7, align 4
  br label %21

58:                                               ; preds = %21
  store i32 0, i32* %9, align 4
  store i32 0, i32* %10, align 4
  br label %59

59:                                               ; preds = %107, %58
  %60 = load i32, i32* %10, align 4
  %61 = load i32, i32* %4, align 4
  %62 = load i32, i32* %2, align 4
  %63 = sub nsw i32 %61, %62
  %64 = icmp sle i32 %60, %63
  br i1 %64, label %65, label %110

65:                                               ; preds = %59
  %66 = load i32, i32* %10, align 4
  store i32 %66, i32* %11, align 4
  br label %67

67:                                               ; preds = %91, %65
  %68 = load i32, i32* %11, align 4
  %69 = load i32, i32* %4, align 4
  %70 = load i32, i32* %2, align 4
  %71 = sub nsw i32 %69, %70
  %72 = icmp sle i32 %68, %71
  br i1 %72, label %73, label %94

73:                                               ; preds = %67
  %74 = load i32, i32* %10, align 4
  %75 = sext i32 %74 to i64
  %76 = getelementptr inbounds [550 x [10 x i8]], [550 x [10 x i8]]* %5, i64 0, i64 %75
  %77 = getelementptr inbounds [10 x i8], [10 x i8]* %76, i64 0, i64 0
  %78 = load i32, i32* %11, align 4
  %79 = sext i32 %78 to i64
  %80 = getelementptr inbounds [550 x [10 x i8]], [550 x [10 x i8]]* %5, i64 0, i64 %79
  %81 = getelementptr inbounds [10 x i8], [10 x i8]* %80, i64 0, i64 0
  %82 = call i32 @strcmp(i8* %77, i8* %81) #4
  %83 = icmp eq i32 %82, 0
  br i1 %83, label %84, label %90

84:                                               ; preds = %73
  %85 = load i32, i32* %10, align 4
  %86 = sext i32 %85 to i64
  %87 = getelementptr inbounds [550 x i32], [550 x i32]* %6, i64 0, i64 %86
  %88 = load i32, i32* %87, align 4
  %89 = add nsw i32 %88, 1
  store i32 %89, i32* %87, align 4
  br label %90

90:                                               ; preds = %84, %73
  br label %91

91:                                               ; preds = %90
  %92 = load i32, i32* %11, align 4
  %93 = add nsw i32 %92, 1
  store i32 %93, i32* %11, align 4
  br label %67

94:                                               ; preds = %67
  %95 = load i32, i32* %9, align 4
  %96 = load i32, i32* %10, align 4
  %97 = sext i32 %96 to i64
  %98 = getelementptr inbounds [550 x i32], [550 x i32]* %6, i64 0, i64 %97
  %99 = load i32, i32* %98, align 4
  %100 = icmp slt i32 %95, %99
  br i1 %100, label %101, label %106

101:                                              ; preds = %94
  %102 = load i32, i32* %10, align 4
  %103 = sext i32 %102 to i64
  %104 = getelementptr inbounds [550 x i32], [550 x i32]* %6, i64 0, i64 %103
  %105 = load i32, i32* %104, align 4
  store i32 %105, i32* %9, align 4
  br label %106

106:                                              ; preds = %101, %94
  br label %107

107:                                              ; preds = %106
  %108 = load i32, i32* %10, align 4
  %109 = add nsw i32 %108, 1
  store i32 %109, i32* %10, align 4
  br label %59

110:                                              ; preds = %59
  %111 = load i32, i32* %9, align 4
  %112 = icmp eq i32 %111, 1
  br i1 %112, label %113, label %115

113:                                              ; preds = %110
  %114 = call i32 (i8*, ...) @printf(i8* getelementptr inbounds ([3 x i8], [3 x i8]* @.str.1, i64 0, i64 0))
  store i32 0, i32* %1, align 4
  br label %142

115:                                              ; preds = %110
  %116 = load i32, i32* %9, align 4
  %117 = call i32 (i8*, ...) @printf(i8* getelementptr inbounds ([4 x i8], [4 x i8]* @.str.2, i64 0, i64 0), i32 %116)
  store i32 0, i32* %12, align 4
  br label %118

118:                                              ; preds = %138, %115
  %119 = load i32, i32* %12, align 4
  %120 = load i32, i32* %4, align 4
  %121 = load i32, i32* %2, align 4
  %122 = sub nsw i32 %120, %121
  %123 = icmp sle i32 %119, %122
  br i1 %123, label %124, label %141

124:                                              ; preds = %118
  %125 = load i32, i32* %9, align 4
  %126 = load i32, i32* %12, align 4
  %127 = sext i32 %126 to i64
  %128 = getelementptr inbounds [550 x i32], [550 x i32]* %6, i64 0, i64 %127
  %129 = load i32, i32* %128, align 4
  %130 = icmp eq i32 %125, %129
  br i1 %130, label %131, label %137

131:                                              ; preds = %124
  %132 = load i32, i32* %12, align 4
  %133 = sext i32 %132 to i64
  %134 = getelementptr inbounds [550 x [10 x i8]], [550 x [10 x i8]]* %5, i64 0, i64 %133
  %135 = getelementptr inbounds [10 x i8], [10 x i8]* %134, i64 0, i64 0
  %136 = call i32 @puts(i8* %135)
  br label %137

137:                                              ; preds = %131, %124
  br label %138

138:                                              ; preds = %137
  %139 = load i32, i32* %12, align 4
  %140 = add nsw i32 %139, 1
  store i32 %140, i32* %12, align 4
  br label %118

141:                                              ; preds = %118
  store i32 0, i32* %1, align 4
  br label %142

142:                                              ; preds = %141, %113
  %143 = load i32, i32* %1, align 4
  ret i32 %143
}

declare dso_local i32 @__isoc99_scanf(i8*, ...) #1

declare dso_local i32 @getchar() #1

declare dso_local i32 @gets(...) #1

; Function Attrs: nounwind readonly
declare dso_local i64 @strlen(i8*) #2

; Function Attrs: argmemonly nounwind willreturn
declare void @llvm.memset.p0i8.i64(i8* nocapture writeonly, i8, i64, i1 immarg) #3

; Function Attrs: nounwind readonly
declare dso_local i32 @strcmp(i8*, i8*) #2

declare dso_local i32 @printf(i8*, ...) #1

declare dso_local i32 @puts(i8*) #1


!llvm.module.flags = !{!0}
!llvm.ident = !{!1}

!0 = !{i32 1, !"wchar_size", i32 4}
!1 = !{!"clang version 10.0.0-4ubuntu1 "}
